target datalayout = "e-m:e-p270:32:32-p271:32:32-p272:64:64-i64:64-i128:128-f80:128-n8:16:32:64-S128"
target triple = "x86_64-pc-linux-gnu"

%struct.Model = type { [257 x i16], [257 x i16], [257 x i8], i32, i32, i32 }
%struct.SliceContext = type { ptr, %struct.Model, %struct.Model, %struct.Model, %struct.Model, %struct.Model, %struct.PixContext, %struct.PixContext }
%struct.PixContext = type { i32, i32, [12 x i8], %struct.Model, %struct.Model, [15 x [4 x %struct.Model]], i32 }

; Function Attrs: nounwind uwtable
define internal void @model_reset(ptr noundef %0) #0 {
  %2 = alloca ptr, align 8
  %3 = alloca i32, align 4
  store ptr %0, ptr %2, align 8, !tbaa !4
  call void @llvm.lifetime.start.p0(i64 4, ptr %3) #8
  store i32 0, ptr %3, align 4, !tbaa !9
  br label %4

4:                                                ; preds = %27, %1
  %5 = load i32, ptr %3, align 4, !tbaa !9
  %6 = load ptr, ptr %2, align 8, !tbaa !4
  %7 = getelementptr inbounds nuw %struct.Model, ptr %6, i32 0, i32 3
  %8 = load i32, ptr %7, align 4, !tbaa !20
  %9 = icmp sle i32 %5, %8
  br i1 %9, label %10, label %30

10:                                               ; preds = %4
  %11 = load ptr, ptr %2, align 8, !tbaa !4
  %12 = getelementptr inbounds nuw %struct.Model, ptr %11, i32 0, i32 1
  %13 = load i32, ptr %3, align 4, !tbaa !9
  %14 = sext i32 %13 to i64
  %15 = getelementptr inbounds [257 x i16], ptr %12, i64 0, i64 %14
  store i16 1, ptr %15, align 2, !tbaa !11
  %16 = load ptr, ptr %2, align 8, !tbaa !4
  %17 = getelementptr inbounds nuw %struct.Model, ptr %16, i32 0, i32 3
  %18 = load i32, ptr %17, align 4, !tbaa !20
  %19 = load i32, ptr %3, align 4, !tbaa !9
  %20 = sub nsw i32 %18, %19
  %21 = trunc i32 %20 to i16
  %22 = load ptr, ptr %2, align 8, !tbaa !4
  %23 = getelementptr inbounds nuw %struct.Model, ptr %22, i32 0, i32 0
  %24 = load i32, ptr %3, align 4, !tbaa !9
  %25 = sext i32 %24 to i64
  %26 = getelementptr inbounds [257 x i16], ptr %23, i64 0, i64 %25
  store i16 %21, ptr %26, align 2, !tbaa !11
  br label %27

27:                                               ; preds = %10
  %28 = load i32, ptr %3, align 4, !tbaa !9
  %29 = add nsw i32 %28, 1
  store i32 %29, ptr %3, align 4, !tbaa !9
  br label %4, !llvm.loop !25

30:                                               ; preds = %4
  %31 = load ptr, ptr %2, align 8, !tbaa !4
  %32 = getelementptr inbounds nuw %struct.Model, ptr %31, i32 0, i32 1
  %33 = getelementptr inbounds [257 x i16], ptr %32, i64 0, i64 0
  store i16 0, ptr %33, align 2, !tbaa !11
  store i32 0, ptr %3, align 4, !tbaa !9
  br label %34

34:                                               ; preds = %49, %30
  %35 = load i32, ptr %3, align 4, !tbaa !9
  %36 = load ptr, ptr %2, align 8, !tbaa !4
  %37 = getelementptr inbounds nuw %struct.Model, ptr %36, i32 0, i32 3
  %38 = load i32, ptr %37, align 4, !tbaa !20
  %39 = icmp slt i32 %35, %38
  br i1 %39, label %40, label %52

40:                                               ; preds = %34
  %41 = load i32, ptr %3, align 4, !tbaa !9
  %42 = trunc i32 %41 to i8
  %43 = load ptr, ptr %2, align 8, !tbaa !4
  %44 = getelementptr inbounds nuw %struct.Model, ptr %43, i32 0, i32 2
  %45 = load i32, ptr %3, align 4, !tbaa !9
  %46 = add nsw i32 %45, 1
  %47 = sext i32 %46 to i64
  %48 = getelementptr inbounds [257 x i8], ptr %44, i64 0, i64 %47
  store i8 %42, ptr %48, align 1, !tbaa !15
  br label %49

49:                                               ; preds = %40
  %50 = load i32, ptr %3, align 4, !tbaa !9
  %51 = add nsw i32 %50, 1
  store i32 %51, ptr %3, align 4, !tbaa !9
  br label %34, !llvm.loop !26

52:                                               ; preds = %34
  call void @llvm.lifetime.end.p0(i64 4, ptr %3) #8
  ret void
}

; Function Attrs: nounwind uwtable
define void @ff_mss12_slicecontext_reset(ptr noundef %0) #0 {
  %2 = alloca ptr, align 8
  store ptr %0, ptr %2, align 8, !tbaa !23
  %3 = load ptr, ptr %2, align 8, !tbaa !23
  %4 = getelementptr inbounds nuw %struct.SliceContext, ptr %3, i32 0, i32 1
  call void @model_reset(ptr noundef %4)
  %5 = load ptr, ptr %2, align 8, !tbaa !23
  %6 = getelementptr inbounds nuw %struct.SliceContext, ptr %5, i32 0, i32 2
  call void @model_reset(ptr noundef %6)
  %7 = load ptr, ptr %2, align 8, !tbaa !23
  %8 = getelementptr inbounds nuw %struct.SliceContext, ptr %7, i32 0, i32 5
  call void @model_reset(ptr noundef %8)
  %9 = load ptr, ptr %2, align 8, !tbaa !23
  %10 = getelementptr inbounds nuw %struct.SliceContext, ptr %9, i32 0, i32 4
  call void @model_reset(ptr noundef %10)
  %11 = load ptr, ptr %2, align 8, !tbaa !23
  %12 = getelementptr inbounds nuw %struct.SliceContext, ptr %11, i32 0, i32 3
  call void @model_reset(ptr noundef %12)
  %13 = load ptr, ptr %2, align 8, !tbaa !23
  %14 = getelementptr inbounds nuw %struct.SliceContext, ptr %13, i32 0, i32 6
  call void @pixctx_reset(ptr noundef %14)
  %15 = load ptr, ptr %2, align 8, !tbaa !23
  %16 = getelementptr inbounds nuw %struct.SliceContext, ptr %15, i32 0, i32 7
  call void @pixctx_reset(ptr noundef %16)
  ret void
}