; Function Attrs: nofree norecurse nosync nounwind memory(argmem: readwrite) uwtable
define void @ff_mss12_slicecontext_reset(ptr noundef captures(none) %0) local_unnamed_addr #0 {
  %2 = getelementptr inbounds nuw i8, ptr %0, i64 8
  %3 = getelementptr inbounds nuw i8, ptr %0, i64 1296
  %4 = load i32, ptr %3, align 4, !tbaa !16
  %.not15.i = icmp slt i32 %4, 0
  %5 = getelementptr inbounds nuw i8, ptr %0, i64 522
  br i1 %.not15.i, label %._crit_edge.thread.i, label %.lr.ph.i

._crit_edge.thread.i:                             ; preds = %1
  store i16 0, ptr %5, align 2, !tbaa !4
  br label %model_reset.exit

.lr.ph.i:                                         ; preds = %1
  %6 = add nuw i32 %4, 1
  %wide.trip.count.i = zext i32 %6 to i64
  br label %7

7:                                                ; preds = %7, %.lr.ph.i
  %indvars.iv.i = phi i64 [ 0, %.lr.ph.i ], [ %indvars.iv.next.i, %7 ]
  %8 = getelementptr inbounds nuw [257 x i16], ptr %5, i64 0, i64 %indvars.iv.i
  store i16 1, ptr %8, align 2, !tbaa !4
  %9 = trunc i64 %indvars.iv.i to i32
  %10 = sub i32 %4, %9
  %11 = trunc i32 %10 to i16
  %12 = getelementptr inbounds nuw [257 x i16], ptr %2, i64 0, i64 %indvars.iv.i
  store i16 %11, ptr %12, align 2, !tbaa !4
  %indvars.iv.next.i = add nuw nsw i64 %indvars.iv.i, 1
  %exitcond.not.i = icmp eq i64 %indvars.iv.next.i, %wide.trip.count.i
  br i1 %exitcond.not.i, label %._crit_edge.i, label %7, !llvm.loop !18

._crit_edge.i:                                    ; preds = %7
  store i16 0, ptr %5, align 2, !tbaa !4
  %.not.i = icmp eq i32 %4, 0
  br i1 %.not.i, label %model_reset.exit, label %.lr.ph19.i

.lr.ph19.i:                                       ; preds = %._crit_edge.i
  %13 = getelementptr inbounds nuw i8, ptr %0, i64 1036
  br label %14

14:                                               ; preds = %14, %.lr.ph19.i
  %indvars.iv22.i = phi i64 [ 0, %.lr.ph19.i ], [ %indvars.iv.next23.i, %14 ]
  %15 = trunc i64 %indvars.iv22.i to i8
  %indvars.iv.next23.i = add nuw nsw i64 %indvars.iv22.i, 1
  %16 = getelementptr inbounds nuw [257 x i8], ptr %13, i64 0, i64 %indvars.iv.next23.i
  store i8 %15, ptr %16, align 1, !tbaa !10
  %17 = load i32, ptr %3, align 4, !tbaa !16
  %18 = sext i32 %17 to i64
  %19 = icmp slt i64 %indvars.iv.next23.i, %18
  br i1 %19, label %14, label %model_reset.exit, !llvm.loop !19

model_reset.exit:                                 ; preds = %14, %._crit_edge.thread.i, %._crit_edge.i
  %20 = getelementptr inbounds nuw i8, ptr %0, i64 1308
  %21 = getelementptr inbounds nuw i8, ptr %0, i64 2596
  %22 = load i32, ptr %21, align 4, !tbaa !16
  %.not15.i7 = icmp slt i32 %22, 0
  %23 = getelementptr inbounds nuw i8, ptr %0, i64 1822
  br i1 %.not15.i7, label %._crit_edge.thread.i18, label %.lr.ph.i8

._crit_edge.thread.i18:                           ; preds = %model_reset.exit
  store i16 0, ptr %23, align 2, !tbaa !4
  br label %model_reset.exit19

.lr.ph.i8:                                        ; preds = %model_reset.exit
  %24 = add nuw i32 %22, 1
  %wide.trip.count.i9 = zext i32 %24 to i64
  br label %25

25:                                               ; preds = %25, %.lr.ph.i8
  %indvars.iv.i10 = phi i64 [ 0, %.lr.ph.i8 ], [ %indvars.iv.next.i11, %25 ]
  %26 = getelementptr inbounds nuw [257 x i16], ptr %23, i64 0, i64 %indvars.iv.i10
  store i16 1, ptr %26, align 2, !tbaa !4
  %27 = trunc i64 %indvars.iv.i10 to i32
  %28 = sub i32 %22, %27
  %29 = trunc i32 %28 to i16
  %30 = getelementptr inbounds nuw [257 x i16], ptr %20, i64 0, i64 %indvars.iv.i10
  store i16 %29, ptr %30, align 2, !tbaa !4
  %indvars.iv.next.i11 = add nuw nsw i64 %indvars.iv.i10, 1
  %exitcond.not.i12 = icmp eq i64 %indvars.iv.next.i11, %wide.trip.count.i9
  br i1 %exitcond.not.i12, label %._crit_edge.i13, label %25, !llvm.loop !18

._crit_edge.i13:                                  ; preds = %25
  store i16 0, ptr %23, align 2, !tbaa !4
  %.not.i14 = icmp eq i32 %22, 0
  br i1 %.not.i14, label %model_reset.exit19, label %.lr.ph19.i15

.lr.ph19.i15:                                     ; preds = %._crit_edge.i13
  %31 = getelementptr inbounds nuw i8, ptr %0, i64 2336
  br label %32

32:                                               ; preds = %32, %.lr.ph19.i15
  %indvars.iv22.i16 = phi i64 [ 0, %.lr.ph19.i15 ], [ %indvars.iv.next23.i17, %32 ]
  %33 = trunc i64 %indvars.iv22.i16 to i8
  %indvars.iv.next23.i17 = add nuw nsw i64 %indvars.iv22.i16, 1
  %34 = getelementptr inbounds nuw [257 x i8], ptr %31, i64 0, i64 %indvars.iv.next23.i17
  store i8 %33, ptr %34, align 1, !tbaa !10
  %35 = load i32, ptr %21, align 4, !tbaa !16
  %36 = sext i32 %35 to i64
  %37 = icmp slt i64 %indvars.iv.next23.i17, %36
  br i1 %37, label %32, label %model_reset.exit19, !llvm.loop !19

model_reset.exit19:                               ; preds = %32, %._crit_edge.thread.i18, %._crit_edge.i13
  %38 = getelementptr inbounds nuw i8, ptr %0, i64 5208
  %39 = getelementptr inbounds nuw i8, ptr %0, i64 6496
  %40 = load i32, ptr %39, align 4, !tbaa !16
  %.not15.i20 = icmp slt i32 %40, 0
  %41 = getelementptr inbounds nuw i8, ptr %0, i64 5722
  br i1 %.not15.i20, label %._crit_edge.thread.i31, label %.lr.ph.i21

._crit_edge.thread.i31:                           ; preds = %model_reset.exit19
  store i16 0, ptr %41, align 2, !tbaa !4
  br label %model_reset.exit32

.lr.ph.i21:                                       ; preds = %model_reset.exit19
  %42 = add nuw i32 %40, 1
  %wide.trip.count.i22 = zext i32 %42 to i64
  br label %43

43:                                               ; preds = %43, %.lr.ph.i21
  %indvars.iv.i23 = phi i64 [ 0, %.lr.ph.i21 ], [ %indvars.iv.next.i24, %43 ]
  %44 = getelementptr inbounds nuw [257 x i16], ptr %41, i64 0, i64 %indvars.iv.i23
  store i16 1, ptr %44, align 2, !tbaa !4
  %45 = trunc i64 %indvars.iv.i23 to i32
  %46 = sub i32 %40, %45
  %47 = trunc i32 %46 to i16
  %48 = getelementptr inbounds nuw [257 x i16], ptr %38, i64 0, i64 %indvars.iv.i23
  store i16 %47, ptr %48, align 2, !tbaa !4
  %indvars.iv.next.i24 = add nuw nsw i64 %indvars.iv.i23, 1
  %exitcond.not.i25 = icmp eq i64 %indvars.iv.next.i24, %wide.trip.count.i22
  br i1 %exitcond.not.i25, label %._crit_edge.i26, label %43, !llvm.loop !18

._crit_edge.i26:                                  ; preds = %43
  store i16 0, ptr %41, align 2, !tbaa !4
  %.not.i27 = icmp eq i32 %40, 0
  br i1 %.not.i27, label %model_reset.exit32, label %.lr.ph19.i28

.lr.ph19.i28:                                     ; preds = %._crit_edge.i26
  %49 = getelementptr inbounds nuw i8, ptr %0, i64 6236
  br label %50

50:                                               ; preds = %50, %.lr.ph19.i28
  %indvars.iv22.i29 = phi i64 [ 0, %.lr.ph19.i28 ], [ %indvars.iv.next23.i30, %50 ]
  %51 = trunc i64 %indvars.iv22.i29 to i8
  %indvars.iv.next23.i30 = add nuw nsw i64 %indvars.iv22.i29, 1
  %52 = getelementptr inbounds nuw [257 x i8], ptr %49, i64 0, i64 %indvars.iv.next23.i30
  store i8 %51, ptr %52, align 1, !tbaa !10
  %53 = load i32, ptr %39, align 4, !tbaa !16
  %54 = sext i32 %53 to i64
  %55 = icmp slt i64 %indvars.iv.next23.i30, %54
  br i1 %55, label %50, label %model_reset.exit32, !llvm.loop !19

model_reset.exit32:                               ; preds = %50, %._crit_edge.thread.i31, %._crit_edge.i26
  %56 = getelementptr inbounds nuw i8, ptr %0, i64 3908
  %57 = getelementptr inbounds nuw i8, ptr %0, i64 5196
  %58 = load i32, ptr %57, align 4, !tbaa !16
  %.not15.i33 = icmp slt i32 %58, 0
  %59 = getelementptr inbounds nuw i8, ptr %0, i64 4422
  br i1 %.not15.i33, label %._crit_edge.thread.i44, label %.lr.ph.i34

._crit_edge.thread.i44:                           ; preds = %model_reset.exit32
  store i16 0, ptr %59, align 2, !tbaa !4
  br label %model_reset.exit45

.lr.ph.i34:                                       ; preds = %model_reset.exit32
  %60 = add nuw i32 %58, 1
  %wide.trip.count.i35 = zext i32 %60 to i64
  br label %61

61:                                               ; preds = %61, %.lr.ph.i34
  %indvars.iv.i36 = phi i64 [ 0, %.lr.ph.i34 ], [ %indvars.iv.next.i37, %61 ]
  %62 = getelementptr inbounds nuw [257 x i16], ptr %59, i64 0, i64 %indvars.iv.i36
  store i16 1, ptr %62, align 2, !tbaa !4
  %63 = trunc i64 %indvars.iv.i36 to i32
  %64 = sub i32 %58, %63
  %65 = trunc i32 %64 to i16
  %66 = getelementptr inbounds nuw [257 x i16], ptr %56, i64 0, i64 %indvars.iv.i36
  store i16 %65, ptr %66, align 2, !tbaa !4
  %indvars.iv.next.i37 = add nuw nsw i64 %indvars.iv.i36, 1
  %exitcond.not.i38 = icmp eq i64 %indvars.iv.next.i37, %wide.trip.count.i35
  br i1 %exitcond.not.i38, label %._crit_edge.i39, label %61, !llvm.loop !18

._crit_edge.i39:                                  ; preds = %61
  store i16 0, ptr %59, align 2, !tbaa !4
  %.not.i40 = icmp eq i32 %58, 0
  br i1 %.not.i40, label %model_reset.exit45, label %.lr.ph19.i41

.lr.ph19.i41:                                     ; preds = %._crit_edge.i39
  %67 = getelementptr inbounds nuw i8, ptr %0, i64 4936
  br label %68

68:                                               ; preds = %68, %.lr.ph19.i41
  %indvars.iv22.i42 = phi i64 [ 0, %.lr.ph19.i41 ], [ %indvars.iv.next23.i43, %68 ]
  %69 = trunc i64 %indvars.iv22.i42 to i8
  %indvars.iv.next23.i43 = add nuw nsw i64 %indvars.iv22.i42, 1
  %70 = getelementptr inbounds nuw [257 x i8], ptr %67, i64 0, i64 %indvars.iv.next23.i43
  store i8 %69, ptr %70, align 1, !tbaa !10
  %71 = load i32, ptr %57, align 4, !tbaa !16
  %72 = sext i32 %71 to i64
  %73 = icmp slt i64 %indvars.iv.next23.i43, %72
  br i1 %73, label %68, label %model_reset.exit45, !llvm.loop !19

model_reset.exit45:                               ; preds = %68, %._crit_edge.thread.i44, %._crit_edge.i39
  %74 = getelementptr inbounds nuw i8, ptr %0, i64 2608
  %75 = getelementptr inbounds nuw i8, ptr %0, i64 3896
  %76 = load i32, ptr %75, align 4, !tbaa !16
  %.not15.i46 = icmp slt i32 %76, 0
  %77 = getelementptr inbounds nuw i8, ptr %0, i64 3122
  br i1 %.not15.i46, label %._crit_edge.thread.i57, label %.lr.ph.i47

._crit_edge.thread.i57:                           ; preds = %model_reset.exit45
  store i16 0, ptr %77, align 2, !tbaa !4
  br label %model_reset.exit58

.lr.ph.i47:                                       ; preds = %model_reset.exit45
  %78 = add nuw i32 %76, 1
  %wide.trip.count.i48 = zext i32 %78 to i64
  br label %79

79:                                               ; preds = %79, %.lr.ph.i47
  %indvars.iv.i49 = phi i64 [ 0, %.lr.ph.i47 ], [ %indvars.iv.next.i50, %79 ]
  %80 = getelementptr inbounds nuw [257 x i16], ptr %77, i64 0, i64 %indvars.iv.i49
  store i16 1, ptr %80, align 2, !tbaa !4
  %81 = trunc i64 %indvars.iv.i49 to i32
  %82 = sub i32 %76, %81
  %83 = trunc i32 %82 to i16
  %84 = getelementptr inbounds nuw [257 x i16], ptr %74, i64 0, i64 %indvars.iv.i49
  store i16 %83, ptr %84, align 2, !tbaa !4
  %indvars.iv.next.i50 = add nuw nsw i64 %indvars.iv.i49, 1
  %exitcond.not.i51 = icmp eq i64 %indvars.iv.next.i50, %wide.trip.count.i48
  br i1 %exitcond.not.i51, label %._crit_edge.i52, label %79, !llvm.loop !18

._crit_edge.i52:                                  ; preds = %79
  store i16 0, ptr %77, align 2, !tbaa !4
  %.not.i53 = icmp eq i32 %76, 0
  br i1 %.not.i53, label %model_reset.exit58, label %.lr.ph19.i54

.lr.ph19.i54:                                     ; preds = %._crit_edge.i52
  %85 = getelementptr inbounds nuw i8, ptr %0, i64 3636
  br label %86

86:                                               ; preds = %86, %.lr.ph19.i54
  %indvars.iv22.i55 = phi i64 [ 0, %.lr.ph19.i54 ], [ %indvars.iv.next23.i56, %86 ]
  %87 = trunc i64 %indvars.iv22.i55 to i8
  %indvars.iv.next23.i56 = add nuw nsw i64 %indvars.iv22.i55, 1
  %88 = getelementptr inbounds nuw [257 x i8], ptr %85, i64 0, i64 %indvars.iv.next23.i56
  store i8 %87, ptr %88, align 1, !tbaa !10
  %89 = load i32, ptr %75, align 4, !tbaa !16
  %90 = sext i32 %89 to i64
  %91 = icmp slt i64 %indvars.iv.next23.i56, %90
  br i1 %91, label %86, label %model_reset.exit58, !llvm.loop !19

model_reset.exit58:                               ; preds = %86, %._crit_edge.thread.i57, %._crit_edge.i52
  %92 = getelementptr inbounds nuw i8, ptr %0, i64 6508
  tail call fastcc void @pixctx_reset(ptr noundef nonnull %92)
  %93 = getelementptr inbounds nuw i8, ptr %0, i64 87132
  tail call fastcc void @pixctx_reset(ptr noundef nonnull %93)
  ret void
}